target datalayout = "e-m:e-p270:32:32-p271:32:32-p272:64:64-i64:64-i128:128-f80:128-n8:16:32:64-S128"
target triple = "x86_64-pc-linux-gnu"

%struct.pager_command_config_data = type { ptr, i32, ptr }

@pager_program = internal global ptr null, align 8

; Function Attrs: nounwind uwtable
define dso_local i32 @check_pager_config(ptr noundef %0, ptr noundef %1) #0 {
  %3 = alloca ptr, align 8
  %4 = alloca ptr, align 8
  %5 = alloca %struct.pager_command_config_data, align 8
  store ptr %0, ptr %3, align 8, !tbaa !11
  store ptr %1, ptr %4, align 8, !tbaa !13
  call void @llvm.lifetime.start.p0(i64 24, ptr %5) #8
  %6 = load ptr, ptr %4, align 8, !tbaa !13
  %7 = getelementptr inbounds nuw %struct.pager_command_config_data, ptr %5, i32 0, i32 0
  store ptr %6, ptr %7, align 8, !tbaa !37
  %8 = getelementptr inbounds nuw %struct.pager_command_config_data, ptr %5, i32 0, i32 1
  store i32 -1, ptr %8, align 8, !tbaa !39
  %9 = getelementptr inbounds nuw %struct.pager_command_config_data, ptr %5, i32 0, i32 2
  store ptr null, ptr %9, align 8, !tbaa !40
  %10 = load ptr, ptr %3, align 8, !tbaa !11
  call void @read_early_config(ptr noundef %10, ptr noundef @pager_command_config, ptr noundef %5)
  %11 = getelementptr inbounds nuw %struct.pager_command_config_data, ptr %5, i32 0, i32 2
  %12 = load ptr, ptr %11, align 8, !tbaa !40
  %13 = icmp ne ptr %12, null
  br i1 %13, label %14, label %17

14:                                               ; preds = %2
  %15 = getelementptr inbounds nuw %struct.pager_command_config_data, ptr %5, i32 0, i32 2
  %16 = load ptr, ptr %15, align 8, !tbaa !40
  store ptr %16, ptr @pager_program, align 8, !tbaa !13
  br label %17

17:                                               ; preds = %14, %2
  %18 = getelementptr inbounds nuw %struct.pager_command_config_data, ptr %5, i32 0, i32 1
  %19 = load i32, ptr %18, align 8, !tbaa !39
  call void @llvm.lifetime.end.p0(i64 24, ptr %5) #8
  ret i32 %19
}