; Function Attrs: nounwind uwtable
define dso_local i32 @check_pager_config(ptr noundef %0, ptr noundef %1) local_unnamed_addr #0 {
  %3 = alloca %struct.pager_command_config_data, align 8
  call void @llvm.lifetime.start.p0(i64 24, ptr nonnull %3) #12
  store ptr %1, ptr %3, align 8, !tbaa !24
  %4 = getelementptr inbounds nuw i8, ptr %3, i64 8
  store i32 -1, ptr %4, align 8, !tbaa !26
  %5 = getelementptr inbounds nuw i8, ptr %3, i64 16
  store ptr null, ptr %5, align 8, !tbaa !27
  call void @read_early_config(ptr noundef %0, ptr noundef nonnull @pager_command_config, ptr noundef nonnull %3) #12
  %6 = load ptr, ptr %5, align 8, !tbaa !27
  %.not = icmp eq ptr %6, null
  br i1 %.not, label %8, label %7

7:                                                ; preds = %2
  store ptr %6, ptr @pager_program, align 8, !tbaa !11
  br label %8

8:                                                ; preds = %7, %2
  %9 = load i32, ptr %4, align 8, !tbaa !26
  call void @llvm.lifetime.end.p0(i64 24, ptr nonnull %3) #12
  ret i32 %9
}